target datalayout = "e-m:e-p270:32:32-p271:32:32-p272:64:64-i64:64-i128:128-f80:128-n8:16:32:64-S128"
target triple = "x86_64-pc-linux-gnu"

; Function Attrs: nounwind uwtable
define internal void @notification_fn(i64 noundef %0, i32 noundef %1, ptr noundef %2, ptr noundef %3, i64 noundef %4, ptr noundef %5, i64 noundef %6, ptr noundef %7, ptr noundef %8) #0 {
  %10 = alloca i64, align 8
  %11 = alloca i32, align 4
  %12 = alloca ptr, align 8
  %13 = alloca ptr, align 8
  %14 = alloca i64, align 8
  %15 = alloca ptr, align 8
  %16 = alloca i64, align 8
  %17 = alloca ptr, align 8
  %18 = alloca ptr, align 8
  store i64 %0, ptr %10, align 8, !tbaa !31
  store i32 %1, ptr %11, align 4, !tbaa !4
  store ptr %2, ptr %12, align 8, !tbaa !86
  store ptr %3, ptr %13, align 8, !tbaa !41
  store i64 %4, ptr %14, align 8, !tbaa !31
  store ptr %5, ptr %15, align 8, !tbaa !41
  store i64 %6, ptr %16, align 8, !tbaa !31
  store ptr %7, ptr %17, align 8, !tbaa !28
  store ptr %8, ptr %18, align 8, !tbaa !28
  %19 = load ptr, ptr %17, align 8, !tbaa !28
  %20 = icmp ne ptr null, %19
  br i1 %20, label %21, label %24

21:                                               ; preds = %9
  %22 = load ptr, ptr %17, align 8, !tbaa !28
  %23 = load ptr, ptr %18, align 8, !tbaa !28
  call void %22(i32 noundef -334, ptr noundef null, i64 noundef 0, ptr noundef null, ptr noundef null, ptr noundef %23)
  br label %24

24:                                               ; preds = %21, %9
  ret void
}