; Function Attrs: nounwind uwtable
define internal void @notification_fn(i64 %0, i32 %1, ptr readnone captures(none) %2, ptr readnone captures(none) %3, i64 %4, ptr readnone captures(none) %5, i64 %6, ptr noundef readonly captures(address_is_null) %7, ptr noundef %8) #0 {
  %.not = icmp eq ptr %7, null
  br i1 %.not, label %11, label %10

10:                                               ; preds = %9
  tail call void %7(i32 noundef -334, ptr noundef null, i64 noundef 0, ptr noundef null, ptr noundef null, ptr noundef %8) #13
  br label %11

11:                                               ; preds = %10, %9
  ret void
}